; Function Attrs: nounwind uwtable
define dso_local void @evalShaCommand(ptr noundef %0) #0 {
  %2 = load ptr, ptr getelementptr inbounds nuw (i8, ptr @server, i64 1472), align 8, !tbaa !113
  %3 = getelementptr inbounds nuw i8, ptr %0, i64 32
  %4 = load ptr, ptr %3, align 8, !tbaa !114
  %5 = getelementptr inbounds nuw i8, ptr %4, i64 56
  %6 = load i32, ptr %5, align 8, !tbaa !115
  %7 = getelementptr inbounds nuw i8, ptr %0, i64 96
  %8 = load ptr, ptr %7, align 8, !tbaa !108
  %9 = getelementptr inbounds nuw i8, ptr %0, i64 88
  %10 = load i32, ptr %9, align 8, !tbaa !117
  tail call void @replicationFeedMonitors(ptr noundef %0, ptr noundef %2, i32 noundef %6, ptr noundef %8, i32 noundef %10) #19
  %11 = load ptr, ptr %7, align 8, !tbaa !108
  %12 = getelementptr inbounds nuw i8, ptr %11, i64 8
  %13 = load ptr, ptr %12, align 8, !tbaa !109
  %14 = getelementptr inbounds nuw i8, ptr %13, i64 8
  %15 = load ptr, ptr %14, align 8, !tbaa !110
  %16 = getelementptr inbounds i8, ptr %15, i64 -1
  %17 = load i8, ptr %16, align 1, !tbaa !13
  %18 = and i8 %17, 7
  switch i8 %18, label %sdslen.exit.thread [
    i8 4, label %31
    i8 1, label %19
    i8 2, label %23
    i8 3, label %27
  ]

19:                                               ; preds = %1
  %20 = getelementptr inbounds i8, ptr %15, i64 -3
  %21 = load i8, ptr %20, align 1, !tbaa !13
  %22 = zext i8 %21 to i64
  br label %sdslen.exit

23:                                               ; preds = %1
  %24 = getelementptr inbounds i8, ptr %15, i64 -5
  %25 = load i16, ptr %24, align 1, !tbaa !94
  %26 = zext i16 %25 to i64
  br label %sdslen.exit

27:                                               ; preds = %1
  %28 = getelementptr inbounds i8, ptr %15, i64 -9
  %29 = load i32, ptr %28, align 1, !tbaa !91
  %30 = zext i32 %29 to i64
  br label %sdslen.exit

31:                                               ; preds = %1
  %32 = getelementptr inbounds i8, ptr %15, i64 -17
  %33 = load i64, ptr %32, align 1, !tbaa !95
  br label %sdslen.exit

sdslen.exit:                                      ; preds = %19, %23, %27, %31
  %.0.i = phi i64 [ %33, %31 ], [ %30, %27 ], [ %26, %23 ], [ %22, %19 ]
  %.not = icmp eq i64 %.0.i, 40
  br i1 %.not, label %35, label %sdslen.exit.thread

sdslen.exit.thread:                               ; preds = %1, %sdslen.exit
  %34 = load ptr, ptr getelementptr inbounds nuw (i8, ptr @shared, i64 240), align 8, !tbaa !118
  tail call void @addReplyErrorObject(ptr noundef nonnull %0, ptr noundef %34) #19
  br label %41

35:                                               ; preds = %sdslen.exit
  %36 = getelementptr inbounds nuw i8, ptr %0, i64 8
  %37 = load i64, ptr %36, align 8, !tbaa !65
  %38 = and i64 %37, 33554432
  %.not9 = icmp eq i64 %38, 0
  br i1 %.not9, label %39, label %40

39:                                               ; preds = %35
  tail call void @evalGenericCommand(ptr noundef nonnull %0, i32 noundef 1)
  br label %41

40:                                               ; preds = %35
  tail call void @addReplyError(ptr noundef nonnull %0, ptr noundef nonnull @.str.31) #19
  br label %41

41:                                               ; preds = %40, %39, %sdslen.exit.thread
  ret void
}